target datalayout = "e-m:e-p270:32:32-p271:32:32-p272:64:64-i64:64-i128:128-f80:128-n8:16:32:64-S128"
target triple = "x86_64-unknown-linux-gnu"

%"struct.icu_75::UniProps" = type { i32, i32, [75 x i8], [25 x i32], [4 x i8], i32, i32, i32, i32, i32, i32, i32, ptr, ptr, ptr, %"class.icu_75::UnicodeString", %"class.icu_75::UnicodeString", %"class.icu_75::UnicodeString", %"class.icu_75::UnicodeString", %"class.icu_75::UnicodeSet" }
%"class.icu_75::UnicodeString" = type { %"class.icu_75::Replaceable", %"union.icu_75::UnicodeString::StackBufferOrFields" }
%"class.icu_75::Replaceable" = type { %"class.icu_75::UObject" }
%"class.icu_75::UObject" = type { ptr }
%"union.icu_75::UnicodeString::StackBufferOrFields" = type { %struct.anon.0, [32 x i8] }
%struct.anon.0 = type { i16, i32, i32, ptr }
%"class.icu_75::UnicodeSet" = type <{ %"class.icu_75::UnicodeFilter", ptr, i32, i32, i8, [7 x i8], ptr, ptr, i32, [4 x i8], ptr, i32, [4 x i8], ptr, ptr, [25 x i32], [4 x i8] }>
%"class.icu_75::UnicodeFilter" = type { %"class.icu_75::UnicodeFunctor", %"class.icu_75::UnicodeMatcher" }
%"class.icu_75::UnicodeFunctor" = type { %"class.icu_75::UObject" }
%"class.icu_75::UnicodeMatcher" = type { ptr }
%"class.icu_75::PreparsedUCD" = type { ptr, ptr, i32, i32, i32, i32, i32, ptr, ptr, [4 x i8], %"struct.icu_75::UniProps", %"struct.icu_75::UniProps", %"struct.icu_75::UniProps", %"class.icu_75::UnicodeSet", [3 x [4096 x i8]] }

@stderr = external global ptr, align 8
@.str.18 = private unnamed_addr constant [89 x i8] c"error in preparsed UCD: missing algnamesrange range field (no second field) on line %ld\0A\00", align 1
@.str.20 = private unnamed_addr constant [74 x i8] c"error in preparsed UCD: '%s' is not a valid code point range on line %ld\0A\00", align 1

; Function Attrs: mustprogress uwtable
define noundef signext i8 @_ZN6icu_7512PreparsedUCD19parseCodePointRangeEPKcRiS3_R10UErrorCode(ptr noundef nonnull align 8 dereferenceable(14640) %this, ptr noundef %s, ptr noundef nonnull align 4 dereferenceable(4) %start, ptr noundef nonnull align 4 dereferenceable(4) %end, ptr noundef nonnull align 4 dereferenceable(4) %errorCode) #1 align 2 {
entry:
  %retval = alloca i8, align 1
  %this.addr = alloca ptr, align 8
  %s.addr = alloca ptr, align 8
  %start.addr = alloca ptr, align 8
  %end.addr = alloca ptr, align 8
  %errorCode.addr = alloca ptr, align 8
  %st = alloca i32, align 4
  %e = alloca i32, align 4
  store ptr %this, ptr %this.addr, align 8
  store ptr %s, ptr %s.addr, align 8
  store ptr %start, ptr %start.addr, align 8
  store ptr %end, ptr %end.addr, align 8
  store ptr %errorCode, ptr %errorCode.addr, align 8
  %this1 = load ptr, ptr %this.addr, align 8
  %0 = load ptr, ptr %s.addr, align 8
  %1 = load ptr, ptr %errorCode.addr, align 8
  %call = call i32 @u_parseCodePointRange(ptr noundef %0, ptr noundef %st, ptr noundef %e, ptr noundef %1)
  %2 = load ptr, ptr %errorCode.addr, align 8
  %3 = load i32, ptr %2, align 4
  %call2 = call noundef signext i8 @_ZL9U_FAILURE10UErrorCode(i32 noundef %3)
  %tobool = icmp ne i8 %call2, 0
  br i1 %tobool, label %if.then, label %if.end

if.then:                                          ; preds = %entry
  %4 = load ptr, ptr @stderr, align 8
  %5 = load ptr, ptr %s.addr, align 8
  %lineNumber = getelementptr inbounds %"class.icu_75::PreparsedUCD", ptr %this1, i32 0, i32 5
  %6 = load i32, ptr %lineNumber, align 4
  %conv = sext i32 %6 to i64
  %call3 = call i32 (ptr, ptr, ...) @fprintf(ptr noundef %4, ptr noundef @.str.20, ptr noundef %5, i64 noundef %conv)
  store i8 0, ptr %retval, align 1
  br label %return

if.end:                                           ; preds = %entry
  %7 = load i32, ptr %st, align 4
  %8 = load ptr, ptr %start.addr, align 8
  store i32 %7, ptr %8, align 4
  %9 = load i32, ptr %e, align 4
  %10 = load ptr, ptr %end.addr, align 8
  store i32 %9, ptr %10, align 4
  store i8 1, ptr %retval, align 1
  br label %return

return:                                           ; preds = %if.end, %if.then
  %11 = load i8, ptr %retval, align 1
  ret i8 %11
}

; Function Attrs: mustprogress nounwind uwtable
define noundef ptr @_ZN6icu_7512PreparsedUCD9nextFieldEv(ptr noundef nonnull align 8 dereferenceable(14640) %this) #0 align 2 {
entry:
  %retval = alloca ptr, align 8
  %this.addr = alloca ptr, align 8
  %field = alloca ptr, align 8
  store ptr %this, ptr %this.addr, align 8
  %this1 = load ptr, ptr %this.addr, align 8
  %fieldLimit = getelementptr inbounds %"class.icu_75::PreparsedUCD", ptr %this1, i32 0, i32 7
  %0 = load ptr, ptr %fieldLimit, align 8
  %lineLimit = getelementptr inbounds %"class.icu_75::PreparsedUCD", ptr %this1, i32 0, i32 8
  %1 = load ptr, ptr %lineLimit, align 8
  %cmp = icmp eq ptr %0, %1
  br i1 %cmp, label %if.then, label %if.end

if.then:                                          ; preds = %entry
  store ptr null, ptr %retval, align 8
  br label %return

if.end:                                           ; preds = %entry
  %fieldLimit2 = getelementptr inbounds %"class.icu_75::PreparsedUCD", ptr %this1, i32 0, i32 7
  %2 = load ptr, ptr %fieldLimit2, align 8
  %add.ptr = getelementptr inbounds i8, ptr %2, i64 1
  store ptr %add.ptr, ptr %field, align 8
  %3 = load ptr, ptr %field, align 8
  %call = call noundef ptr @strchr(ptr noundef %3, i32 noundef 0) #13
  %fieldLimit3 = getelementptr inbounds %"class.icu_75::PreparsedUCD", ptr %this1, i32 0, i32 7
  store ptr %call, ptr %fieldLimit3, align 8
  %4 = load ptr, ptr %field, align 8
  store ptr %4, ptr %retval, align 8
  br label %return

return:                                           ; preds = %if.end, %if.then
  %5 = load ptr, ptr %retval, align 8
  ret ptr %5
}

; Function Attrs: mustprogress nounwind uwtable
define noundef ptr @_ZN6icu_7512PreparsedUCD10firstFieldEv(ptr noundef nonnull align 8 dereferenceable(14640) %this) #0 align 2 {
entry:
  %this.addr = alloca ptr, align 8
  %field = alloca ptr, align 8
  store ptr %this, ptr %this.addr, align 8
  %this1 = load ptr, ptr %this.addr, align 8
  %lines = getelementptr inbounds %"class.icu_75::PreparsedUCD", ptr %this1, i32 0, i32 14
  %lineIndex = getelementptr inbounds %"class.icu_75::PreparsedUCD", ptr %this1, i32 0, i32 4
  %0 = load i32, ptr %lineIndex, align 8
  %idxprom = sext i32 %0 to i64
  %arrayidx = getelementptr inbounds [3 x [4096 x i8]], ptr %lines, i64 0, i64 %idxprom
  %arraydecay = getelementptr inbounds [4096 x i8], ptr %arrayidx, i64 0, i64 0
  store ptr %arraydecay, ptr %field, align 8
  %1 = load ptr, ptr %field, align 8
  %call = call noundef ptr @strchr(ptr noundef %1, i32 noundef 0) #13
  %fieldLimit = getelementptr inbounds %"class.icu_75::PreparsedUCD", ptr %this1, i32 0, i32 7
  store ptr %call, ptr %fieldLimit, align 8
  %2 = load ptr, ptr %field, align 8
  ret ptr %2
}

; Function Attrs: mustprogress nounwind uwtable
define internal noundef signext i8 @_ZL9U_FAILURE10UErrorCode(i32 noundef %code) #0 {
entry:
  %code.addr = alloca i32, align 4
  store i32 %code, ptr %code.addr, align 4
  %0 = load i32, ptr %code.addr, align 4
  %cmp = icmp sgt i32 %0, 0
  %conv = zext i1 %cmp to i8
  ret i8 %conv
}

; Function Attrs: mustprogress uwtable
define noundef signext i8 @_ZN6icu_7512PreparsedUCD19getRangeForAlgNamesERiS1_R10UErrorCode(ptr noundef nonnull align 8 dereferenceable(14640) %this, ptr noundef nonnull align 4 dereferenceable(4) %start, ptr noundef nonnull align 4 dereferenceable(4) %end, ptr noundef nonnull align 4 dereferenceable(4) %errorCode) #1 align 2 {
entry:
  %retval = alloca i8, align 1
  %this.addr = alloca ptr, align 8
  %start.addr = alloca ptr, align 8
  %end.addr = alloca ptr, align 8
  %errorCode.addr = alloca ptr, align 8
  %field = alloca ptr, align 8
  store ptr %this, ptr %this.addr, align 8
  store ptr %start, ptr %start.addr, align 8
  store ptr %end, ptr %end.addr, align 8
  store ptr %errorCode, ptr %errorCode.addr, align 8
  %this1 = load ptr, ptr %this.addr, align 8
  %0 = load ptr, ptr %errorCode.addr, align 8
  %1 = load i32, ptr %0, align 4
  %call = call noundef signext i8 @_ZL9U_FAILURE10UErrorCode(i32 noundef %1)
  %tobool = icmp ne i8 %call, 0
  br i1 %tobool, label %if.then, label %if.end

if.then:                                          ; preds = %entry
  store i8 0, ptr %retval, align 1
  br label %return

if.end:                                           ; preds = %entry
  %lineType = getelementptr inbounds %"class.icu_75::PreparsedUCD", ptr %this1, i32 0, i32 6
  %2 = load i32, ptr %lineType, align 8
  %cmp = icmp ne i32 %2, 10
  br i1 %cmp, label %if.then2, label %if.end3

if.then2:                                         ; preds = %if.end
  %3 = load ptr, ptr %errorCode.addr, align 8
  store i32 1, ptr %3, align 4
  store i8 0, ptr %retval, align 1
  br label %return

if.end3:                                          ; preds = %if.end
  %call4 = call noundef ptr @_ZN6icu_7512PreparsedUCD10firstFieldEv(ptr noundef nonnull align 8 dereferenceable(14640) %this1)
  %call5 = call noundef ptr @_ZN6icu_7512PreparsedUCD9nextFieldEv(ptr noundef nonnull align 8 dereferenceable(14640) %this1)
  store ptr %call5, ptr %field, align 8
  %4 = load ptr, ptr %field, align 8
  %cmp6 = icmp eq ptr %4, null
  br i1 %cmp6, label %if.then7, label %if.end9

if.then7:                                         ; preds = %if.end3
  %5 = load ptr, ptr @stderr, align 8
  %lineNumber = getelementptr inbounds %"class.icu_75::PreparsedUCD", ptr %this1, i32 0, i32 5
  %6 = load i32, ptr %lineNumber, align 4
  %conv = sext i32 %6 to i64
  %call8 = call i32 (ptr, ptr, ...) @fprintf(ptr noundef %5, ptr noundef @.str.18, i64 noundef %conv)
  %7 = load ptr, ptr %errorCode.addr, align 8
  store i32 9, ptr %7, align 4
  store i8 0, ptr %retval, align 1
  br label %return

if.end9:                                          ; preds = %if.end3
  %8 = load ptr, ptr %field, align 8
  %9 = load ptr, ptr %start.addr, align 8
  %10 = load ptr, ptr %end.addr, align 8
  %11 = load ptr, ptr %errorCode.addr, align 8
  %call10 = call noundef signext i8 @_ZN6icu_7512PreparsedUCD19parseCodePointRangeEPKcRiS3_R10UErrorCode(ptr noundef nonnull align 8 dereferenceable(14640) %this1, ptr noundef %8, ptr noundef nonnull align 4 dereferenceable(4) %9, ptr noundef nonnull align 4 dereferenceable(4) %10, ptr noundef nonnull align 4 dereferenceable(4) %11)
  store i8 %call10, ptr %retval, align 1
  br label %return

return:                                           ; preds = %if.end9, %if.then7, %if.then2, %if.then
  %12 = load i8, ptr %retval, align 1
  ret i8 %12
}