; Function Attrs: mustprogress uwtable
define noundef signext i8 @_ZN6icu_7512PreparsedUCD19getRangeForAlgNamesERiS1_R10UErrorCode(ptr noundef nonnull align 8 dereferenceable(14640) %this, ptr nocapture noundef nonnull writeonly align 4 dereferenceable(4) %start, ptr nocapture noundef nonnull writeonly align 4 dereferenceable(4) %end, ptr noundef nonnull align 4 dereferenceable(4) %errorCode) local_unnamed_addr #1 align 2 {
entry:
  %st.i = alloca i32, align 4
  %e.i = alloca i32, align 4
  %0 = load i32, ptr %errorCode, align 4
  %cmp.i = icmp slt i32 %0, 1
  br i1 %cmp.i, label %if.end, label %return

if.end:                                           ; preds = %entry
  %lineType = getelementptr inbounds i8, ptr %this, i64 32
  %1 = load i32, ptr %lineType, align 8
  %cmp.not = icmp eq i32 %1, 10
  br i1 %cmp.not, label %if.end3, label %if.then2

if.then2:                                         ; preds = %if.end
  store i32 1, ptr %errorCode, align 4
  br label %return

if.end3:                                          ; preds = %if.end
  %lines.i = getelementptr inbounds i8, ptr %this, i64 2352
  %lineIndex.i = getelementptr inbounds i8, ptr %this, i64 24
  %2 = load i32, ptr %lineIndex.i, align 8
  %idxprom.i = sext i32 %2 to i64
  %arrayidx.i = getelementptr inbounds [3 x [4096 x i8]], ptr %lines.i, i64 0, i64 %idxprom.i
  %strlen.i = tail call i64 @strlen(ptr noundef nonnull dereferenceable(1) %arrayidx.i)
  %strchr.i = getelementptr inbounds i8, ptr %arrayidx.i, i64 %strlen.i
  %fieldLimit.i = getelementptr inbounds i8, ptr %this, i64 40
  store ptr %strchr.i, ptr %fieldLimit.i, align 8
  %lineLimit.i = getelementptr inbounds i8, ptr %this, i64 48
  %3 = load ptr, ptr %lineLimit.i, align 8
  %cmp.i6 = icmp eq ptr %strchr.i, %3
  br i1 %cmp.i6, label %if.then7, label %if.end9

if.then7:                                         ; preds = %if.end3
  %4 = load ptr, ptr @stderr, align 8
  %lineNumber = getelementptr inbounds i8, ptr %this, i64 28
  %5 = load i32, ptr %lineNumber, align 4
  %conv = sext i32 %5 to i64
  %call8 = tail call i32 (ptr, ptr, ...) @fprintf(ptr noundef %4, ptr noundef nonnull @.str.18, i64 noundef %conv) #24
  store i32 9, ptr %errorCode, align 4
  br label %return

if.end9:                                          ; preds = %if.end3
  %add.ptr.i = getelementptr inbounds i8, ptr %strchr.i, i64 1
  %strlen.i7 = tail call i64 @strlen(ptr noundef nonnull dereferenceable(1) %add.ptr.i)
  %strchr.i8 = getelementptr inbounds i8, ptr %add.ptr.i, i64 %strlen.i7
  store ptr %strchr.i8, ptr %fieldLimit.i, align 8
  call void @llvm.lifetime.start.p0(i64 4, ptr nonnull %st.i)
  call void @llvm.lifetime.start.p0(i64 4, ptr nonnull %e.i)
  %call.i = call i32 @u_parseCodePointRange(ptr noundef nonnull %add.ptr.i, ptr noundef nonnull %st.i, ptr noundef nonnull %e.i, ptr noundef nonnull %errorCode)
  %6 = load i32, ptr %errorCode, align 4
  %cmp.i.i = icmp slt i32 %6, 1
  br i1 %cmp.i.i, label %if.end.i11, label %if.then.i

if.then.i:                                        ; preds = %if.end9
  %7 = load ptr, ptr @stderr, align 8
  %lineNumber.i = getelementptr inbounds i8, ptr %this, i64 28
  %8 = load i32, ptr %lineNumber.i, align 4
  %conv.i9 = sext i32 %8 to i64
  %call3.i = call i32 (ptr, ptr, ...) @fprintf(ptr noundef %7, ptr noundef nonnull @.str.20, ptr noundef nonnull %add.ptr.i, i64 noundef %conv.i9) #24
  br label %_ZN6icu_7512PreparsedUCD19parseCodePointRangeEPKcRiS3_R10UErrorCode.exit

if.end.i11:                                       ; preds = %if.end9
  %9 = load i32, ptr %st.i, align 4
  store i32 %9, ptr %start, align 4
  %10 = load i32, ptr %e.i, align 4
  store i32 %10, ptr %end, align 4
  br label %_ZN6icu_7512PreparsedUCD19parseCodePointRangeEPKcRiS3_R10UErrorCode.exit

_ZN6icu_7512PreparsedUCD19parseCodePointRangeEPKcRiS3_R10UErrorCode.exit: ; preds = %if.then.i, %if.end.i11
  %retval.0.i10 = phi i8 [ 0, %if.then.i ], [ 1, %if.end.i11 ]
  call void @llvm.lifetime.end.p0(i64 4, ptr nonnull %st.i)
  call void @llvm.lifetime.end.p0(i64 4, ptr nonnull %e.i)
  br label %return

return:                                           ; preds = %entry, %_ZN6icu_7512PreparsedUCD19parseCodePointRangeEPKcRiS3_R10UErrorCode.exit, %if.then7, %if.then2
  %retval.0 = phi i8 [ 0, %if.then2 ], [ 0, %if.then7 ], [ %retval.0.i10, %_ZN6icu_7512PreparsedUCD19parseCodePointRangeEPKcRiS3_R10UErrorCode.exit ], [ 0, %entry ]
  ret i8 %retval.0
}